ccopy_reg
_reconstructor
p0
(csklearn.naive_bayes
GaussianNB
p1
c__builtin__
object
p2
Ntp3
Rp4
(dp5
S'var_smoothing'
p6
F1e-09
sS'class_prior_'
p7
cnumpy.core.multiarray
_reconstruct
p8
(cnumpy
ndarray
p9
(I0
tp10
S'b'
p11
tp12
Rp13
(I1
(I2
tp14
cnumpy
dtype
p15
(S'f8'
p16
I0
I1
tp17
Rp18
(I3
S'<'
p19
NNNI-1
I-1
I0
tp20
bI00
S'\x05/\xa7\xe0\xe5\x14\xec?\xd6\x87\xc6\xfa\xd0X\xbf?'
p21
tp22
bsS'priors'
p23
NsS'classes_'
p24
g8
(g9
(I0
tp25
g11
tp26
Rp27
(I1
(I2
tp28
g18
I00
S'\x00\x00\x00\x00\x00\x00\x00\x00\x00\x00\x00\x00\x00\x00\xf0?'
p29
tp30
bsS'theta_'
p31
g8
(g9
(I0
tp32
g11
tp33
Rp34
(I1
(I2
I1
tp35
g18
I00
S'\xb9#\xee\x08\xa1\x9e7AUUUE\x8d TA'
p36
tp37
bsS'sigma_'
p38
g8
(g9
(I0
tp39
g11
tp40
Rp41
(I1
(I2
I1
tp42
g18
I00
S'\xfd\xb3\x81\xc2\x97u\x98B\xe4\xf3\x90y\xd5\x1b\xd8B'
p43
tp44
bsS'_sklearn_version'
p45
S'0.20.3'
p46
sS'class_count_'
p47
g8
(g9
(I0
tp48
g11
tp49
Rp50
(I1
(I2
tp51
g18
I00
S'\x00\x00\x00\x00\x00\x80U@\x00\x00\x00\x00\x00\x00(@'
p52
tp53
bsS'epsilon_'
p54
cnumpy.core.multiarray
scalar
p55
(g18
S'\xcb\x9en\x03H\xe6\xd3@'
p56
tp57
Rp58
sb.